; Function Attrs: mustprogress uwtable
define dso_local void @_ZNK4pbrt13FilterSampler8ToStringB5cxx11Ev(ptr dead_on_unwind noalias writable sret(%"class.std::__cxx11::basic_string") align 8 %0, ptr noundef nonnull align 8 dereferenceable(176) %1) local_unnamed_addr #0 align 2 personality ptr @__gxx_personality_v0 {
  %3 = getelementptr inbounds nuw i8, ptr %1, i64 16
  %4 = getelementptr inbounds nuw i8, ptr %1, i64 48
  %5 = getelementptr inbounds nuw i8, ptr %0, i64 16
  store ptr %5, ptr %0, align 8, !tbaa !9, !alias.scope !128
  %6 = getelementptr inbounds nuw i8, ptr %0, i64 8
  store i64 0, ptr %6, align 8, !tbaa !13, !alias.scope !128
  store i8 0, ptr %5, align 8, !tbaa !15, !alias.scope !128
  invoke void @_ZN4pbrt6detail21stringPrintfRecursiveIRKNS_7Bounds2IfEEJRKNS_7Array2DIfEERKNS_19PiecewiseConstant2DEEEEvPNSt7__cxx1112basic_stringIcSt11char_traitsIcESaIcEEEPKcOT_DpOT0_(ptr noundef nonnull align 8 %0, ptr noundef nonnull @.str.20, ptr noundef nonnull align 4 dereferenceable(16) %1, ptr noundef nonnull align 8 dereferenceable(32) %3, ptr noundef nonnull align 8 dereferenceable(128) %4)
          to label %_ZN4pbrt12StringPrintfIJRKNS_7Bounds2IfEERKNS_7Array2DIfEERKNS_19PiecewiseConstant2DEEEENSt7__cxx1112basic_stringIcSt11char_traitsIcESaIcEEEPKcDpOT_.exit unwind label %7

7:                                                ; preds = %2
  %8 = landingpad { ptr, i32 }
          cleanup
  %9 = load ptr, ptr %0, align 8, !tbaa !27, !alias.scope !128
  %10 = icmp eq ptr %9, %5
  br i1 %10, label %_ZNKSt7__cxx1112basic_stringIcSt11char_traitsIcESaIcEE11_M_is_localEv.exit.thread.i.i.i, label %_ZNKSt7__cxx1112basic_stringIcSt11char_traitsIcESaIcEE11_M_is_localEv.exit.i.i.i

_ZNKSt7__cxx1112basic_stringIcSt11char_traitsIcESaIcEE11_M_is_localEv.exit.thread.i.i.i: ; preds = %7
  %11 = load i64, ptr %6, align 8, !tbaa !13, !alias.scope !128
  %12 = icmp ult i64 %11, 16
  tail call void @llvm.assume(i1 %12)
  br label %_ZNSt7__cxx1112basic_stringIcSt11char_traitsIcESaIcEED2Ev.exit.i

_ZNKSt7__cxx1112basic_stringIcSt11char_traitsIcESaIcEE11_M_is_localEv.exit.i.i.i: ; preds = %7
  %13 = load i64, ptr %5, align 8, !tbaa !15, !alias.scope !128
  %14 = add i64 %13, 1
  tail call void @_ZdlPvm(ptr noundef %9, i64 noundef %14) #23
  br label %_ZNSt7__cxx1112basic_stringIcSt11char_traitsIcESaIcEED2Ev.exit.i

_ZNSt7__cxx1112basic_stringIcSt11char_traitsIcESaIcEED2Ev.exit.i: ; preds = %_ZNKSt7__cxx1112basic_stringIcSt11char_traitsIcESaIcEE11_M_is_localEv.exit.i.i.i, %_ZNKSt7__cxx1112basic_stringIcSt11char_traitsIcESaIcEE11_M_is_localEv.exit.thread.i.i.i
  resume { ptr, i32 } %8

_ZN4pbrt12StringPrintfIJRKNS_7Bounds2IfEERKNS_7Array2DIfEERKNS_19PiecewiseConstant2DEEEENSt7__cxx1112basic_stringIcSt11char_traitsIcESaIcEEEPKcDpOT_.exit: ; preds = %2
  ret void
}